; Function Attrs: nofree norecurse nosync nounwind memory(readwrite, inaccessiblemem: none) uwtable
define void @Abc_NodeMakeDist1Free(ptr noundef readonly captures(none) %0) local_unnamed_addr #7 {
  %2 = getelementptr inbounds nuw i8, ptr %0, i64 56
  %3 = load ptr, ptr %2, align 8, !tbaa !35
  %4 = getelementptr i8, ptr %0, i64 28
  %.val = load i32, ptr %4, align 4, !tbaa !78
  %.val.fr = freeze i32 %.val
  %5 = load i8, ptr %3, align 1, !tbaa !35
  %.not49 = icmp eq i8 %5, 0
  br i1 %.not49, label %._crit_edge, label %.lr.ph

.lr.ph:                                           ; preds = %1
  %6 = sext i32 %.val.fr to i64
  %7 = icmp sgt i32 %.val.fr, 0
  br i1 %7, label %.lr.ph.split.us.preheader, label %._crit_edge

.lr.ph.split.us.preheader:                        ; preds = %.lr.ph
  %wide.trip.count = zext nneg i32 %.val.fr to i64
  br label %.lr.ph.split.us

.lr.ph.split.us:                                  ; preds = %.lr.ph.split.us.preheader, %._crit_edge48.split.us.us
  %.03450.us = phi ptr [ %.03645.us, %._crit_edge48.split.us.us ], [ %3, %.lr.ph.split.us.preheader ]
  %8 = getelementptr i8, ptr %.03450.us, i64 %6
  %.03645.us = getelementptr i8, ptr %8, i64 3
  %9 = load i8, ptr %.03645.us, align 1, !tbaa !35
  %.not3846.us = icmp eq i8 %9, 0
  br i1 %.not3846.us, label %._crit_edge, label %.preheader.us.us

._crit_edge48.split.us.us:                        ; preds = %.thread.us.us
  %.pre = load i8, ptr %.03645.us, align 1, !tbaa !35
  %10 = icmp eq i8 %.pre, 0
  br i1 %10, label %._crit_edge, label %.lr.ph.split.us, !llvm.loop !92

.preheader.us.us:                                 ; preds = %.lr.ph.split.us, %.thread.us.us
  %.03647.us.us = phi ptr [ %.036.us.us, %.thread.us.us ], [ %.03645.us, %.lr.ph.split.us ]
  br label %27

11:                                               ; preds = %._crit_edge.us.us
  %12 = sext i32 %spec.select40.us.us to i64
  %13 = getelementptr inbounds i8, ptr %.03450.us, i64 %12
  %14 = load i8, ptr %13, align 1, !tbaa !35
  switch i8 %14, label %.thread.us.us [
    i8 48, label %19
    i8 49, label %15
  ]

15:                                               ; preds = %11
  %16 = getelementptr inbounds i8, ptr %.03647.us.us, i64 %12
  %17 = load i8, ptr %16, align 1, !tbaa !35
  %18 = icmp eq i8 %17, 48
  br i1 %18, label %23, label %.thread.us.us

19:                                               ; preds = %11
  %20 = getelementptr inbounds i8, ptr %.03647.us.us, i64 %12
  %21 = load i8, ptr %20, align 1, !tbaa !35
  %22 = icmp eq i8 %21, 49
  br i1 %22, label %23, label %.thread.us.us

23:                                               ; preds = %19, %15
  %24 = getelementptr inbounds i8, ptr %.03647.us.us, i64 %12
  store i8 45, ptr %24, align 1, !tbaa !35
  store i8 45, ptr %13, align 1, !tbaa !35
  br label %.thread.us.us

.thread.us.us:                                    ; preds = %._crit_edge.us.us, %23, %19, %15, %11
  %25 = getelementptr i8, ptr %.03647.us.us, i64 %6
  %.036.us.us = getelementptr i8, ptr %25, i64 3
  %26 = load i8, ptr %.036.us.us, align 1, !tbaa !35
  %.not38.us.us = icmp eq i8 %26, 0
  br i1 %.not38.us.us, label %._crit_edge48.split.us.us, label %.preheader.us.us, !llvm.loop !93

27:                                               ; preds = %27, %.preheader.us.us
  %indvars.iv = phi i64 [ %indvars.iv.next, %27 ], [ 0, %.preheader.us.us ]
  %.043.us.us = phi i32 [ %spec.select40.us.us, %27 ], [ -1, %.preheader.us.us ]
  %.03242.us.us = phi i32 [ %spec.select.us.us, %27 ], [ 0, %.preheader.us.us ]
  %28 = getelementptr inbounds nuw i8, ptr %.03450.us, i64 %indvars.iv
  %29 = load i8, ptr %28, align 1, !tbaa !35
  %30 = getelementptr inbounds nuw i8, ptr %.03647.us.us, i64 %indvars.iv
  %31 = load i8, ptr %30, align 1, !tbaa !35
  %.not39.us.us = icmp ne i8 %29, %31
  %32 = zext i1 %.not39.us.us to i32
  %spec.select.us.us = add nuw nsw i32 %.03242.us.us, %32
  %33 = trunc nuw nsw i64 %indvars.iv to i32
  %spec.select40.us.us = select i1 %.not39.us.us, i32 %33, i32 %.043.us.us
  %indvars.iv.next = add nuw nsw i64 %indvars.iv, 1
  %exitcond.not = icmp eq i64 %indvars.iv.next, %wide.trip.count
  br i1 %exitcond.not, label %._crit_edge.us.us, label %27, !llvm.loop !94

._crit_edge.us.us:                                ; preds = %27
  %34 = icmp eq i32 %spec.select.us.us, 1
  br i1 %34, label %11, label %.thread.us.us

._crit_edge:                                      ; preds = %.lr.ph.split.us, %._crit_edge48.split.us.us, %.lr.ph, %1
  ret void
}